target datalayout = "e-m:e-p270:32:32-p271:32:32-p272:64:64-i64:64-i128:128-f80:128-n8:16:32:64-S128"
target triple = "x86_64-pc-linux-gnu"

%struct.SN_env = type { ptr, i32, i32, i32, i32, i32, ptr, ptr }

@s_65 = internal constant [6 x i8] c"\D8\A7\D8\B3\D8\AA", align 1

; Function Attrs: nounwind uwtable
define internal i32 @r_Prefix_Step4_Verb(ptr noundef %0) #0 {
  %2 = alloca i32, align 4
  %3 = alloca ptr, align 8
  %4 = alloca i32, align 4
  %5 = alloca i32, align 4
  store ptr %0, ptr %3, align 8
  %6 = load ptr, ptr %3, align 8
  %7 = getelementptr inbounds nuw %struct.SN_env, ptr %6, i32 0, i32 1
  %8 = load i32, ptr %7, align 8
  %9 = load ptr, ptr %3, align 8
  %10 = getelementptr inbounds nuw %struct.SN_env, ptr %9, i32 0, i32 4
  store i32 %8, ptr %10, align 4
  %11 = load ptr, ptr %3, align 8
  %12 = getelementptr inbounds nuw %struct.SN_env, ptr %11, i32 0, i32 1
  %13 = load i32, ptr %12, align 8
  %14 = add i32 %13, 5
  %15 = load ptr, ptr %3, align 8
  %16 = getelementptr inbounds nuw %struct.SN_env, ptr %15, i32 0, i32 2
  %17 = load i32, ptr %16, align 4
  %18 = icmp sge i32 %14, %17
  br i1 %18, label %32, label %19

19:                                               ; preds = %1
  %20 = load ptr, ptr %3, align 8
  %21 = getelementptr inbounds nuw %struct.SN_env, ptr %20, i32 0, i32 0
  %22 = load ptr, ptr %21, align 8
  %23 = load ptr, ptr %3, align 8
  %24 = getelementptr inbounds nuw %struct.SN_env, ptr %23, i32 0, i32 1
  %25 = load i32, ptr %24, align 8
  %26 = add i32 %25, 5
  %27 = sext i32 %26 to i64
  %28 = getelementptr inbounds i8, ptr %22, i64 %27
  %29 = load i8, ptr %28, align 1
  %30 = zext i8 %29 to i32
  %31 = icmp ne i32 %30, 170
  br i1 %31, label %32, label %33

32:                                               ; preds = %19, %1
  store i32 0, ptr %2, align 4
  br label %69

33:                                               ; preds = %19
  %34 = load ptr, ptr %3, align 8
  %35 = call i32 @find_among(ptr noundef %34, ptr noundef @a_9, i32 noundef 3)
  %36 = icmp ne i32 %35, 0
  br i1 %36, label %38, label %37

37:                                               ; preds = %33
  store i32 0, ptr %2, align 4
  br label %69

38:                                               ; preds = %33
  %39 = load ptr, ptr %3, align 8
  %40 = getelementptr inbounds nuw %struct.SN_env, ptr %39, i32 0, i32 1
  %41 = load i32, ptr %40, align 8
  %42 = load ptr, ptr %3, align 8
  %43 = getelementptr inbounds nuw %struct.SN_env, ptr %42, i32 0, i32 5
  store i32 %41, ptr %43, align 8
  %44 = load ptr, ptr %3, align 8
  %45 = getelementptr inbounds nuw %struct.SN_env, ptr %44, i32 0, i32 0
  %46 = load ptr, ptr %45, align 8
  %47 = call i32 @len_utf8(ptr noundef %46)
  %48 = icmp sgt i32 %47, 4
  br i1 %48, label %50, label %49

49:                                               ; preds = %38
  store i32 0, ptr %2, align 4
  br label %69

50:                                               ; preds = %38
  %51 = load ptr, ptr %3, align 8
  %52 = getelementptr inbounds nuw %struct.SN_env, ptr %51, i32 0, i32 7
  %53 = load ptr, ptr %52, align 8
  %54 = getelementptr inbounds i32, ptr %53, i64 1
  store i32 1, ptr %54, align 4
  %55 = load ptr, ptr %3, align 8
  %56 = getelementptr inbounds nuw %struct.SN_env, ptr %55, i32 0, i32 7
  %57 = load ptr, ptr %56, align 8
  %58 = getelementptr inbounds i32, ptr %57, i64 2
  store i32 0, ptr %58, align 4
  call void @llvm.lifetime.start.p0(i64 4, ptr %4) #3
  %59 = load ptr, ptr %3, align 8
  %60 = call i32 @slice_from_s(ptr noundef %59, i32 noundef 6, ptr noundef @s_65)
  store i32 %60, ptr %4, align 4
  %61 = load i32, ptr %4, align 4
  %62 = icmp slt i32 %61, 0
  br i1 %62, label %63, label %65

63:                                               ; preds = %50
  %64 = load i32, ptr %4, align 4
  store i32 %64, ptr %2, align 4
  store i32 1, ptr %5, align 4
  br label %66

65:                                               ; preds = %50
  store i32 0, ptr %5, align 4
  br label %66

66:                                               ; preds = %65, %63
  call void @llvm.lifetime.end.p0(i64 4, ptr %4) #3
  %67 = load i32, ptr %5, align 4
  switch i32 %67, label %71 [
    i32 0, label %68
    i32 1, label %69
  ]

68:                                               ; preds = %66
  store i32 1, ptr %2, align 4
  br label %69

69:                                               ; preds = %68, %66, %49, %37, %32
  %70 = load i32, ptr %2, align 4
  ret i32 %70

71:                                               ; preds = %66
  unreachable
}