; Function Attrs: nounwind uwtable
define internal fastcc i32 @r_Prefix_Step4_Verb(ptr noundef initializes((20, 24)) %0) unnamed_addr #0 {
  %2 = getelementptr inbounds nuw i8, ptr %0, i64 8
  %3 = load i32, ptr %2, align 8
  %4 = getelementptr inbounds nuw i8, ptr %0, i64 20
  store i32 %3, ptr %4, align 4
  %5 = add i32 %3, 5
  %6 = getelementptr inbounds nuw i8, ptr %0, i64 12
  %7 = load i32, ptr %6, align 4
  %.not = icmp slt i32 %5, %7
  br i1 %.not, label %8, label %29

8:                                                ; preds = %1
  %9 = load ptr, ptr %0, align 8
  %10 = sext i32 %5 to i64
  %11 = getelementptr inbounds i8, ptr %9, i64 %10
  %12 = load i8, ptr %11, align 1
  %.not18 = icmp eq i8 %12, -86
  br i1 %.not18, label %13, label %29

13:                                               ; preds = %8
  %14 = tail call i32 @find_among(ptr noundef nonnull %0, ptr noundef nonnull @a_9, i32 noundef 3) #2
  %.not19 = icmp eq i32 %14, 0
  br i1 %.not19, label %29, label %15

15:                                               ; preds = %13
  %16 = load i32, ptr %2, align 8
  %17 = getelementptr inbounds nuw i8, ptr %0, i64 24
  store i32 %16, ptr %17, align 8
  %18 = load ptr, ptr %0, align 8
  %19 = tail call i32 @len_utf8(ptr noundef %18) #2
  %20 = icmp sgt i32 %19, 4
  br i1 %20, label %21, label %29

21:                                               ; preds = %15
  %22 = getelementptr inbounds nuw i8, ptr %0, i64 40
  %23 = load ptr, ptr %22, align 8
  %24 = getelementptr inbounds nuw i8, ptr %23, i64 4
  store i32 1, ptr %24, align 4
  %25 = load ptr, ptr %22, align 8
  %26 = getelementptr inbounds nuw i8, ptr %25, i64 8
  store i32 0, ptr %26, align 4
  %27 = tail call i32 @slice_from_s(ptr noundef nonnull %0, i32 noundef 6, ptr noundef nonnull @s_65) #2
  %28 = icmp sgt i32 %27, -1
  %spec.select = select i1 %28, i32 1, i32 %27
  br label %29

29:                                               ; preds = %21, %15, %13, %1, %8
  %.016 = phi i32 [ 0, %8 ], [ 0, %1 ], [ 0, %13 ], [ 0, %15 ], [ %spec.select, %21 ]
  ret i32 %.016
}